target datalayout = "e-m:e-p270:32:32-p271:32:32-p272:64:64-i64:64-i128:128-f80:128-n8:16:32:64-S128"
target triple = "x86_64-pc-linux-gnu"

%"class.datatype::param_size::size.base" = type <{ ptr, i32 }>
%class.sort_size = type { i32, i64 }
%"struct.datatype::param_size::power" = type { %"class.datatype::param_size::size.base", ptr, ptr }
%class.rational = type { %class.mpq }
%class.mpq = type { %class.mpz, %class.mpz }
%class.mpz = type { i32, i8, ptr }

; Function Attrs: mustprogress nounwind uwtable
define linkonce_odr hidden void @_ZN9sort_sizeC2ENS_6kind_tEm(ptr noundef nonnull align 8 dereferenceable(16) %0, i32 noundef %1, i64 noundef %2) unnamed_addr #5 comdat align 2 {
  %4 = alloca ptr, align 8
  %5 = alloca i32, align 4
  %6 = alloca i64, align 8
  store ptr %0, ptr %4, align 8, !tbaa !110
  store i32 %1, ptr %5, align 4, !tbaa !115
  store i64 %2, ptr %6, align 8, !tbaa !117
  %7 = load ptr, ptr %4, align 8
  %8 = getelementptr inbounds nuw %class.sort_size, ptr %7, i32 0, i32 0
  %9 = load i32, ptr %5, align 4, !tbaa !115
  store i32 %9, ptr %8, align 8, !tbaa !141
  %10 = getelementptr inbounds nuw %class.sort_size, ptr %7, i32 0, i32 1
  %11 = load i64, ptr %6, align 8, !tbaa !117
  store i64 %11, ptr %10, align 8, !tbaa !143
  ret void
}

; Function Attrs: mustprogress uwtable
define linkonce_odr hidden { i32, i64 } @_ZN9sort_size11mk_very_bigEv() #4 comdat align 2 {
  %1 = alloca %class.sort_size, align 8
  call void @_ZN9sort_sizeC2ENS_6kind_tEm(ptr noundef nonnull align 8 dereferenceable(16) %1, i32 noundef 1, i64 noundef 0)
  %2 = load { i32, i64 }, ptr %1, align 8
  ret { i32, i64 } %2
}

; Function Attrs: mustprogress nounwind uwtable
define linkonce_odr hidden noundef i64 @_ZNK9sort_size4sizeEv(ptr noundef nonnull align 8 dereferenceable(16) %0) #5 comdat align 2 {
  %2 = alloca ptr, align 8
  store ptr %0, ptr %2, align 8, !tbaa !110
  %3 = load ptr, ptr %2, align 8
  %4 = getelementptr inbounds nuw %class.sort_size, ptr %3, i32 0, i32 1
  %5 = load i64, ptr %4, align 8, !tbaa !143
  ret i64 %5
}

; Function Attrs: mustprogress nounwind uwtable
define linkonce_odr hidden noundef zeroext i1 @_ZNK9sort_size11is_very_bigEv(ptr noundef nonnull align 8 dereferenceable(16) %0) #5 comdat align 2 {
  %2 = alloca ptr, align 8
  store ptr %0, ptr %2, align 8, !tbaa !110
  %3 = load ptr, ptr %2, align 8
  %4 = getelementptr inbounds nuw %class.sort_size, ptr %3, i32 0, i32 0
  %5 = load i32, ptr %4, align 8, !tbaa !141
  %6 = icmp eq i32 %5, 1
  ret i1 %6
}

; Function Attrs: mustprogress nounwind uwtable
define linkonce_odr hidden noundef zeroext i1 @_ZNK9sort_size11is_infiniteEv(ptr noundef nonnull align 8 dereferenceable(16) %0) #5 comdat align 2 {
  %2 = alloca ptr, align 8
  store ptr %0, ptr %2, align 8, !tbaa !110
  %3 = load ptr, ptr %2, align 8
  %4 = getelementptr inbounds nuw %class.sort_size, ptr %3, i32 0, i32 0
  %5 = load i32, ptr %4, align 8, !tbaa !141
  %6 = icmp eq i32 %5, 2
  ret i1 %6
}

; Function Attrs: mustprogress uwtable
define hidden { i32, i64 } @_ZN8datatype10param_size5power4evalERK7obj_mapI4sort9sort_sizeE(ptr noundef nonnull align 8 dereferenceable(32) %0, ptr noundef nonnull align 8 dereferenceable(24) %1) unnamed_addr #4 align 2 personality ptr @__gxx_personality_v0 {
  %3 = alloca %class.sort_size, align 8
  %4 = alloca ptr, align 8
  %5 = alloca ptr, align 8
  %6 = alloca %class.sort_size, align 8
  %7 = alloca %class.sort_size, align 8
  %8 = alloca i32, align 4
  %9 = alloca %class.rational, align 8
  %10 = alloca %class.rational, align 8
  %11 = alloca ptr, align 8
  %12 = alloca i32, align 4
  store ptr %0, ptr %4, align 8, !tbaa !145
  store ptr %1, ptr %5, align 8, !tbaa !150
  %13 = load ptr, ptr %4, align 8
  call void @llvm.lifetime.start.p0(i64 16, ptr %6) #3
  %14 = getelementptr inbounds nuw %"struct.datatype::param_size::power", ptr %13, i32 0, i32 1
  %15 = load ptr, ptr %14, align 8, !tbaa !147
  %16 = load ptr, ptr %5, align 8, !tbaa !150
  %17 = load ptr, ptr %15, align 8, !tbaa !108
  %18 = getelementptr inbounds ptr, ptr %17, i64 3
  %19 = load ptr, ptr %18, align 8
  %20 = call { i32, i64 } %19(ptr noundef nonnull align 8 dereferenceable(12) %15, ptr noundef nonnull align 8 dereferenceable(24) %16)
  %21 = getelementptr inbounds nuw { i32, i64 }, ptr %6, i32 0, i32 0
  %22 = extractvalue { i32, i64 } %20, 0
  store i32 %22, ptr %21, align 8
  %23 = getelementptr inbounds nuw { i32, i64 }, ptr %6, i32 0, i32 1
  %24 = extractvalue { i32, i64 } %20, 1
  store i64 %24, ptr %23, align 8
  call void @llvm.lifetime.start.p0(i64 16, ptr %7) #3
  %25 = getelementptr inbounds nuw %"struct.datatype::param_size::power", ptr %13, i32 0, i32 2
  %26 = load ptr, ptr %25, align 8, !tbaa !149
  %27 = load ptr, ptr %5, align 8, !tbaa !150
  %28 = load ptr, ptr %26, align 8, !tbaa !108
  %29 = getelementptr inbounds ptr, ptr %28, i64 3
  %30 = load ptr, ptr %29, align 8
  %31 = call { i32, i64 } %30(ptr noundef nonnull align 8 dereferenceable(12) %26, ptr noundef nonnull align 8 dereferenceable(24) %27)
  %32 = getelementptr inbounds nuw { i32, i64 }, ptr %7, i32 0, i32 0
  %33 = extractvalue { i32, i64 } %31, 0
  store i32 %33, ptr %32, align 8
  %34 = getelementptr inbounds nuw { i32, i64 }, ptr %7, i32 0, i32 1
  %35 = extractvalue { i32, i64 } %31, 1
  store i64 %35, ptr %34, align 8
  %36 = call noundef zeroext i1 @_ZNK9sort_size11is_infiniteEv(ptr noundef nonnull align 8 dereferenceable(16) %6)
  br i1 %36, label %37, label %38

37:                                               ; preds = %2
  call void @llvm.memcpy.p0.p0.i64(ptr align 8 %3, ptr align 8 %6, i64 16, i1 false), !tbaa.struct !114
  store i32 1, ptr %8, align 4
  br label %83

38:                                               ; preds = %2
  %39 = call noundef zeroext i1 @_ZNK9sort_size11is_infiniteEv(ptr noundef nonnull align 8 dereferenceable(16) %7)
  br i1 %39, label %40, label %41

40:                                               ; preds = %38
  call void @llvm.memcpy.p0.p0.i64(ptr align 8 %3, ptr align 8 %7, i64 16, i1 false), !tbaa.struct !114
  store i32 1, ptr %8, align 4
  br label %83

41:                                               ; preds = %38
  %42 = call noundef zeroext i1 @_ZNK9sort_size11is_very_bigEv(ptr noundef nonnull align 8 dereferenceable(16) %6)
  br i1 %42, label %43, label %44

43:                                               ; preds = %41
  call void @llvm.memcpy.p0.p0.i64(ptr align 8 %3, ptr align 8 %6, i64 16, i1 false), !tbaa.struct !114
  store i32 1, ptr %8, align 4
  br label %83

44:                                               ; preds = %41
  %45 = call noundef zeroext i1 @_ZNK9sort_size11is_very_bigEv(ptr noundef nonnull align 8 dereferenceable(16) %7)
  br i1 %45, label %46, label %47

46:                                               ; preds = %44
  call void @llvm.memcpy.p0.p0.i64(ptr align 8 %3, ptr align 8 %7, i64 16, i1 false), !tbaa.struct !114
  store i32 1, ptr %8, align 4
  br label %83

47:                                               ; preds = %44
  %48 = call noundef i64 @_ZNK9sort_size4sizeEv(ptr noundef nonnull align 8 dereferenceable(16) %6)
  %49 = icmp eq i64 %48, 1
  br i1 %49, label %50, label %51

50:                                               ; preds = %47
  call void @llvm.memcpy.p0.p0.i64(ptr align 8 %3, ptr align 8 %6, i64 16, i1 false), !tbaa.struct !114
  store i32 1, ptr %8, align 4
  br label %83

51:                                               ; preds = %47
  %52 = call noundef i64 @_ZNK9sort_size4sizeEv(ptr noundef nonnull align 8 dereferenceable(16) %7)
  %53 = icmp eq i64 %52, 1
  br i1 %53, label %54, label %55

54:                                               ; preds = %51
  call void @llvm.memcpy.p0.p0.i64(ptr align 8 %3, ptr align 8 %6, i64 16, i1 false), !tbaa.struct !114
  store i32 1, ptr %8, align 4
  br label %83

55:                                               ; preds = %51
  %56 = call noundef i64 @_ZNK9sort_size4sizeEv(ptr noundef nonnull align 8 dereferenceable(16) %6)
  %57 = icmp ugt i64 %56, 2097152
  br i1 %57, label %61, label %58

58:                                               ; preds = %55
  %59 = call noundef i64 @_ZNK9sort_size4sizeEv(ptr noundef nonnull align 8 dereferenceable(16) %7)
  %60 = icmp ugt i64 %59, 10
  br i1 %60, label %61, label %67

61:                                               ; preds = %58, %55
  %62 = call { i32, i64 } @_ZN9sort_size11mk_very_bigEv()
  %63 = getelementptr inbounds nuw { i32, i64 }, ptr %3, i32 0, i32 0
  %64 = extractvalue { i32, i64 } %62, 0
  store i32 %64, ptr %63, align 8
  %65 = getelementptr inbounds nuw { i32, i64 }, ptr %3, i32 0, i32 1
  %66 = extractvalue { i32, i64 } %62, 1
  store i64 %66, ptr %65, align 8
  store i32 1, ptr %8, align 4
  br label %83

67:                                               ; preds = %58
  call void @llvm.lifetime.start.p0(i64 32, ptr %9) #3
  call void @llvm.lifetime.start.p0(i64 32, ptr %10) #3
  %68 = call noundef i64 @_ZNK9sort_size4sizeEv(ptr noundef nonnull align 8 dereferenceable(16) %6)
  call void @_ZN8rationalC2EmNS_4ui64E(ptr noundef nonnull align 8 dereferenceable(32) %10, i64 noundef %68)
  %69 = invoke noundef i64 @_ZNK9sort_size4sizeEv(ptr noundef nonnull align 8 dereferenceable(16) %7)
          to label %70 unwind label %74

70:                                               ; preds = %67
  %71 = trunc i64 %69 to i32
  invoke void @_Z5powerRK8rationalj(ptr dead_on_unwind writable sret(%class.rational) align 8 %9, ptr noundef nonnull align 8 dereferenceable(32) %10, i32 noundef %71)
          to label %72 unwind label %74

72:                                               ; preds = %70
  call void @_ZN8rationalD2Ev(ptr noundef nonnull align 8 dereferenceable(32) %10) #3
  call void @llvm.lifetime.end.p0(i64 32, ptr %10) #3
  invoke void @_ZN9sort_sizeC2ERK8rational(ptr noundef nonnull align 8 dereferenceable(16) %3, ptr noundef nonnull align 8 dereferenceable(32) %9)
          to label %73 unwind label %78

73:                                               ; preds = %72
  store i32 1, ptr %8, align 4
  call void @_ZN8rationalD2Ev(ptr noundef nonnull align 8 dereferenceable(32) %9) #3
  call void @llvm.lifetime.end.p0(i64 32, ptr %9) #3
  br label %83

74:                                               ; preds = %70, %67
  %75 = landingpad { ptr, i32 }
          cleanup
  %76 = extractvalue { ptr, i32 } %75, 0
  store ptr %76, ptr %11, align 8
  %77 = extractvalue { ptr, i32 } %75, 1
  store i32 %77, ptr %12, align 4
  call void @_ZN8rationalD2Ev(ptr noundef nonnull align 8 dereferenceable(32) %10) #3
  call void @llvm.lifetime.end.p0(i64 32, ptr %10) #3
  br label %82

78:                                               ; preds = %72
  %79 = landingpad { ptr, i32 }
          cleanup
  %80 = extractvalue { ptr, i32 } %79, 0
  store ptr %80, ptr %11, align 8
  %81 = extractvalue { ptr, i32 } %79, 1
  store i32 %81, ptr %12, align 4
  call void @_ZN8rationalD2Ev(ptr noundef nonnull align 8 dereferenceable(32) %9) #3
  br label %82

82:                                               ; preds = %78, %74
  call void @llvm.lifetime.end.p0(i64 32, ptr %9) #3
  call void @llvm.lifetime.end.p0(i64 16, ptr %7) #3
  call void @llvm.lifetime.end.p0(i64 16, ptr %6) #3
  br label %85

83:                                               ; preds = %73, %61, %54, %50, %46, %43, %40, %37
  call void @llvm.lifetime.end.p0(i64 16, ptr %7) #3
  call void @llvm.lifetime.end.p0(i64 16, ptr %6) #3
  %84 = load { i32, i64 }, ptr %3, align 8
  ret { i32, i64 } %84

85:                                               ; preds = %82
  %86 = load ptr, ptr %11, align 8
  %87 = load i32, ptr %12, align 4
  %88 = insertvalue { ptr, i32 } poison, ptr %86, 0
  %89 = insertvalue { ptr, i32 } %88, i32 %87, 1
  resume { ptr, i32 } %89
}