; Function Attrs: mustprogress uwtable
define hidden { i32, i64 } @_ZN8datatype10param_size5power4evalERK7obj_mapI4sort9sort_sizeE(ptr noundef nonnull readonly align 8 captures(none) dereferenceable(32) %0, ptr noundef nonnull align 8 dereferenceable(24) %1) unnamed_addr #4 align 2 personality ptr @__gxx_personality_v0 {
  %3 = alloca %class.sort_size, align 8
  %4 = alloca %class.rational, align 8
  %5 = alloca %class.rational, align 8
  %6 = getelementptr inbounds nuw i8, ptr %0, i64 16
  %7 = load ptr, ptr %6, align 8, !tbaa !118
  %8 = load ptr, ptr %7, align 8, !tbaa !68
  %9 = getelementptr inbounds nuw i8, ptr %8, i64 24
  %10 = load ptr, ptr %9, align 8
  %11 = tail call { i32, i64 } %10(ptr noundef nonnull align 8 dereferenceable(12) %7, ptr noundef nonnull align 8 dereferenceable(24) %1)
  %12 = extractvalue { i32, i64 } %11, 0
  %13 = extractvalue { i32, i64 } %11, 1
  %14 = getelementptr inbounds nuw i8, ptr %0, i64 24
  %15 = load ptr, ptr %14, align 8, !tbaa !120
  %16 = load ptr, ptr %15, align 8, !tbaa !68
  %17 = getelementptr inbounds nuw i8, ptr %16, i64 24
  %18 = load ptr, ptr %17, align 8
  %19 = tail call { i32, i64 } %18(ptr noundef nonnull align 8 dereferenceable(12) %15, ptr noundef nonnull align 8 dereferenceable(24) %1)
  %20 = extractvalue { i32, i64 } %19, 0
  %21 = extractvalue { i32, i64 } %19, 1
  %22 = icmp eq i32 %12, 2
  br i1 %22, label %45, label %23

23:                                               ; preds = %2
  %24 = icmp eq i32 %20, 2
  br i1 %24, label %45, label %25

25:                                               ; preds = %23
  %26 = icmp eq i32 %12, 1
  br i1 %26, label %45, label %27

27:                                               ; preds = %25
  %28 = icmp eq i32 %20, 1
  br i1 %28, label %45, label %29

29:                                               ; preds = %27
  %30 = icmp eq i64 %13, 1
  br i1 %30, label %45, label %31

31:                                               ; preds = %29
  %32 = icmp eq i64 %21, 1
  br i1 %32, label %45, label %33

33:                                               ; preds = %31
  %34 = icmp ugt i64 %13, 2097152
  %35 = icmp ugt i64 %21, 10
  %or.cond = select i1 %34, i1 true, i1 %35
  br i1 %or.cond, label %45, label %36

36:                                               ; preds = %33
  call void @llvm.lifetime.start.p0(i64 32, ptr nonnull %4) #28
  call void @llvm.lifetime.start.p0(i64 32, ptr nonnull %5) #28
  call void @_ZN8rationalC2EmNS_4ui64E(ptr noundef nonnull align 8 dereferenceable(32) %5, i64 noundef %13)
  %37 = trunc nuw i64 %21 to i32
  invoke void @_Z5powerRK8rationalj(ptr dead_on_unwind nonnull writable sret(%class.rational) align 8 %4, ptr noundef nonnull align 8 dereferenceable(32) %5, i32 noundef %37)
          to label %38 unwind label %40

38:                                               ; preds = %36
  call void @_ZN8rationalD2Ev(ptr noundef nonnull align 8 dereferenceable(32) %5) #28
  call void @llvm.lifetime.end.p0(i64 32, ptr nonnull %5) #28
  invoke void @_ZN9sort_sizeC2ERK8rational(ptr noundef nonnull align 8 dereferenceable(16) %3, ptr noundef nonnull align 8 dereferenceable(32) %4)
          to label %39 unwind label %42

39:                                               ; preds = %38
  call void @_ZN8rationalD2Ev(ptr noundef nonnull align 8 dereferenceable(32) %4) #28
  call void @llvm.lifetime.end.p0(i64 32, ptr nonnull %4) #28
  %.fca.0.load.pre = load i32, ptr %3, align 8
  %.fca.1.gep.phi.trans.insert = getelementptr inbounds nuw i8, ptr %3, i64 8
  %.fca.1.load.pre = load i64, ptr %.fca.1.gep.phi.trans.insert, align 8
  br label %45

40:                                               ; preds = %36
  %41 = landingpad { ptr, i32 }
          cleanup
  call void @_ZN8rationalD2Ev(ptr noundef nonnull align 8 dereferenceable(32) %5) #28
  call void @llvm.lifetime.end.p0(i64 32, ptr nonnull %5) #28
  br label %44

42:                                               ; preds = %38
  %43 = landingpad { ptr, i32 }
          cleanup
  call void @_ZN8rationalD2Ev(ptr noundef nonnull align 8 dereferenceable(32) %4) #28
  br label %44

44:                                               ; preds = %42, %40
  %.pn = phi { ptr, i32 } [ %43, %42 ], [ %41, %40 ]
  call void @llvm.lifetime.end.p0(i64 32, ptr nonnull %4) #28
  resume { ptr, i32 } %.pn

45:                                               ; preds = %33, %31, %29, %27, %25, %23, %2, %39
  %.fca.1.load = phi i64 [ %.fca.1.load.pre, %39 ], [ %13, %2 ], [ %21, %23 ], [ %13, %25 ], [ %21, %27 ], [ 1, %29 ], [ %13, %31 ], [ 0, %33 ]
  %.fca.0.load = phi i32 [ %.fca.0.load.pre, %39 ], [ 2, %2 ], [ 2, %23 ], [ 1, %25 ], [ 1, %27 ], [ %12, %29 ], [ %12, %31 ], [ 1, %33 ]
  %.fca.0.insert = insertvalue { i32, i64 } poison, i32 %.fca.0.load, 0
  %.fca.1.insert = insertvalue { i32, i64 } %.fca.0.insert, i64 %.fca.1.load, 1
  ret { i32, i64 } %.fca.1.insert
}